; ModuleID = '19/1999.c'
source_filename = "19/1999.c"
target datalayout = "e-m:e-p270:32:32-p271:32:32-p272:64:64-i64:64-f80:128-n8:16:32:64-S128"
target triple = "x86_64-pc-linux-gnu"

@.str = private unnamed_addr constant [4 x i8] c"%s \00", align 1
@.str.1 = private unnamed_addr constant [3 x i8] c"%s\00", align 1

; Function Attrs: noinline nounwind uwtable
define dso_local i32 @main() #0 {
  %1 = alloca i32, align 4
  %2 = alloca [101 x i8], align 16
  %3 = alloca [101 x i8], align 16
  %4 = alloca [101 x i8], align 16
  %5 = alloca i32, align 4
  %6 = alloca i32, align 4
  %7 = alloca [101 x i8], align 16
  store i32 0, i32* %1, align 4
  %8 = getelementptr inbounds [101 x i8], [101 x i8]* %2, i64 0, i64 0
  %9 = call i32 (i8*, ...) bitcast (i32 (...)* @gets to i32 (i8*, ...)*)(i8* %8)
  %10 = getelementptr inbounds [101 x i8], [101 x i8]* %3, i64 0, i64 0
  %11 = call i32 (i8*, ...) bitcast (i32 (...)* @gets to i32 (i8*, ...)*)(i8* %10)
  %12 = getelementptr inbounds [101 x i8], [101 x i8]* %4, i64 0, i64 0
  %13 = call i32 (i8*, ...) bitcast (i32 (...)* @gets to i32 (i8*, ...)*)(i8* %12)
  store i32 0, i32* %6, align 4
  %14 = load i32, i32* %6, align 4
  %15 = sext i32 %14 to i64
  %16 = getelementptr inbounds [101 x i8], [101 x i8]* %7, i64 0, i64 %15
  store i8 0, i8* %16, align 1
  store i32 0, i32* %5, align 4
  br label %17

17:                                               ; preds = %66, %0
  %18 = load i32, i32* %5, align 4
  %19 = sext i32 %18 to i64
  %20 = getelementptr inbounds [101 x i8], [101 x i8]* %2, i64 0, i64 0
  %21 = call i64 @strlen(i8* %20) #3
  %22 = icmp ult i64 %19, %21
  br i1 %22, label %23, label %69

23:                                               ; preds = %17
  %24 = load i32, i32* %5, align 4
  %25 = sext i32 %24 to i64
  %26 = getelementptr inbounds [101 x i8], [101 x i8]* %2, i64 0, i64 %25
  %27 = load i8, i8* %26, align 1
  %28 = sext i8 %27 to i32
  %29 = icmp ne i32 %28, 32
  br i1 %29, label %30, label %47

30:                                               ; preds = %23
  %31 = load i32, i32* %5, align 4
  %32 = sext i32 %31 to i64
  %33 = getelementptr inbounds [101 x i8], [101 x i8]* %2, i64 0, i64 %32
  %34 = load i8, i8* %33, align 1
  %35 = sext i8 %34 to i32
  %36 = icmp ne i32 %35, 44
  br i1 %36, label %37, label %47

37:                                               ; preds = %30
  %38 = load i32, i32* %5, align 4
  %39 = sext i32 %38 to i64
  %40 = getelementptr inbounds [101 x i8], [101 x i8]* %2, i64 0, i64 %39
  %41 = load i8, i8* %40, align 1
  %42 = load i32, i32* %6, align 4
  %43 = sext i32 %42 to i64
  %44 = getelementptr inbounds [101 x i8], [101 x i8]* %7, i64 0, i64 %43
  store i8 %41, i8* %44, align 1
  %45 = load i32, i32* %6, align 4
  %46 = add nsw i32 %45, 1
  store i32 %46, i32* %6, align 4
  br label %65

47:                                               ; preds = %30, %23
  %48 = load i32, i32* %6, align 4
  %49 = sext i32 %48 to i64
  %50 = getelementptr inbounds [101 x i8], [101 x i8]* %7, i64 0, i64 %49
  store i8 0, i8* %50, align 1
  %51 = getelementptr inbounds [101 x i8], [101 x i8]* %7, i64 0, i64 0
  %52 = getelementptr inbounds [101 x i8], [101 x i8]* %3, i64 0, i64 0
  %53 = call i32 @strcmp(i8* %51, i8* %52) #3
  %54 = icmp eq i32 %53, 0
  br i1 %54, label %55, label %58

55:                                               ; preds = %47
  %56 = getelementptr inbounds [101 x i8], [101 x i8]* %4, i64 0, i64 0
  %57 = call i32 (i8*, ...) @printf(i8* getelementptr inbounds ([4 x i8], [4 x i8]* @.str, i64 0, i64 0), i8* %56)
  br label %61

58:                                               ; preds = %47
  %59 = getelementptr inbounds [101 x i8], [101 x i8]* %7, i64 0, i64 0
  %60 = call i32 (i8*, ...) @printf(i8* getelementptr inbounds ([4 x i8], [4 x i8]* @.str, i64 0, i64 0), i8* %59)
  br label %61

61:                                               ; preds = %58, %55
  store i32 0, i32* %6, align 4
  %62 = load i32, i32* %6, align 4
  %63 = sext i32 %62 to i64
  %64 = getelementptr inbounds [101 x i8], [101 x i8]* %7, i64 0, i64 %63
  store i8 0, i8* %64, align 1
  br label %65

65:                                               ; preds = %61, %37
  br label %66

66:                                               ; preds = %65
  %67 = load i32, i32* %5, align 4
  %68 = add nsw i32 %67, 1
  store i32 %68, i32* %5, align 4
  br label %17

69:                                               ; preds = %17
  %70 = load i32, i32* %6, align 4
  %71 = sext i32 %70 to i64
  %72 = getelementptr inbounds [101 x i8], [101 x i8]* %7, i64 0, i64 %71
  store i8 0, i8* %72, align 1
  %73 = getelementptr inbounds [101 x i8], [101 x i8]* %7, i64 0, i64 0
  %74 = getelementptr inbounds [101 x i8], [101 x i8]* %3, i64 0, i64 0
  %75 = call i32 @strcmp(i8* %73, i8* %74) #3
  %76 = icmp eq i32 %75, 0
  br i1 %76, label %77, label %80

77:                                               ; preds = %69
  %78 = getelementptr inbounds [101 x i8], [101 x i8]* %4, i64 0, i64 0
  %79 = call i32 (i8*, ...) @printf(i8* getelementptr inbounds ([3 x i8], [3 x i8]* @.str.1, i64 0, i64 0), i8* %78)
  br label %83

80:                                               ; preds = %69
  %81 = getelementptr inbounds [101 x i8], [101 x i8]* %7, i64 0, i64 0
  %82 = call i32 (i8*, ...) @printf(i8* getelementptr inbounds ([3 x i8], [3 x i8]* @.str.1, i64 0, i64 0), i8* %81)
  br label %83

83:                                               ; preds = %80, %77
  ret i32 0
}

declare dso_local i32 @gets(...) #1

; Function Attrs: nounwind readonly
declare dso_local i64 @strlen(i8*) #2

; Function Attrs: nounwind readonly
declare dso_local i32 @strcmp(i8*, i8*) #2

declare dso_local i32 @printf(i8*, ...) #1


!llvm.module.flags = !{!0}
!llvm.ident = !{!1}

!0 = !{i32 1, !"wchar_size", i32 4}
!1 = !{!"clang version 10.0.0-4ubuntu1 "}
